target datalayout = "e-m:e-p270:32:32-p271:32:32-p272:64:64-i64:64-i128:128-f80:128-n8:16:32:64-S128"
target triple = "x86_64-pc-linux-gnu"

%"class.std::locale" = type { ptr }
%"class.std::ios_base" = type { ptr, i64, i64, i32, i32, i32, ptr, %"struct.std::ios_base::_Words", [8 x %"struct.std::ios_base::_Words"], i32, ptr, %"class.std::locale" }
%"struct.std::ios_base::_Words" = type { ptr, i64 }
%class.anon = type { ptr, ptr, ptr }

@.str.60 = private unnamed_addr constant [6 x i8] c"table\00", align 1
@.str.61 = private unnamed_addr constant [10 x i8] c"metatable\00", align 1
@.str.62 = private unnamed_addr constant [11 x i8] c"lowerBound\00", align 1
@.str.63 = private unnamed_addr constant [11 x i8] c"upperBound\00", align 1
@.str.64 = private unnamed_addr constant [8 x i8] c"indexer\00", align 1
@.str.65 = private unnamed_addr constant [12 x i8] c"indexResult\00", align 1
@.str.66 = private unnamed_addr constant [8 x i8] c"negated\00", align 1
@.str.67 = private unnamed_addr constant [9 x i8] c"variadic\00", align 1
@.str.68 = private unnamed_addr constant [3 x i8] c"()\00", align 1

; Function Attrs: inlinehint mustprogress nounwind uwtable
define linkonce_odr dso_local noundef i32 @_ZStorSt12_Ios_IostateS_(i32 noundef %0, i32 noundef %1) #2 comdat {
  %3 = alloca i32, align 4
  %4 = alloca i32, align 4
  store i32 %0, ptr %3, align 4, !tbaa !170
  store i32 %1, ptr %4, align 4, !tbaa !170
  %5 = load i32, ptr %3, align 4, !tbaa !170
  %6 = load i32, ptr %4, align 4, !tbaa !170
  %7 = or i32 %5, %6
  ret i32 %7
}

; Function Attrs: mustprogress nounwind uwtable
define available_externally noundef i32 @_ZNKSt9basic_iosIcSt11char_traitsIcEE7rdstateEv(ptr noundef nonnull align 8 dereferenceable(264) %0) #1 align 2 {
  %2 = alloca ptr, align 8
  store ptr %0, ptr %2, align 8, !tbaa !168
  %3 = load ptr, ptr %2, align 8
  %4 = getelementptr inbounds nuw %"class.std::ios_base", ptr %3, i32 0, i32 5
  %5 = load i32, ptr %4, align 8, !tbaa !171
  ret i32 %5
}

; Function Attrs: mustprogress nounwind uwtable
define linkonce_odr dso_local noundef i64 @_ZNSt11char_traitsIcE6lengthEPKc(ptr noundef %0) #1 comdat align 2 {
  %2 = alloca ptr, align 8
  store ptr %0, ptr %2, align 8, !tbaa !13
  %3 = load ptr, ptr %2, align 8, !tbaa !13
  %4 = call i64 @strlen(ptr noundef %3) #3
  ret i64 %4
}

; Function Attrs: mustprogress uwtable
define available_externally void @_ZNSt9basic_iosIcSt11char_traitsIcEE8setstateESt12_Ios_Iostate(ptr noundef nonnull align 8 dereferenceable(264) %0, i32 noundef %1) #5 align 2 {
  %3 = alloca ptr, align 8
  %4 = alloca i32, align 4
  store ptr %0, ptr %3, align 8, !tbaa !168
  store i32 %1, ptr %4, align 4, !tbaa !170
  %5 = load ptr, ptr %3, align 8
  %6 = call noundef i32 @_ZNKSt9basic_iosIcSt11char_traitsIcEE7rdstateEv(ptr noundef nonnull align 8 dereferenceable(264) %5)
  %7 = load i32, ptr %4, align 4, !tbaa !170
  %8 = call noundef i32 @_ZStorSt12_Ios_IostateS_(i32 noundef %6, i32 noundef %7)
  call void @_ZNSt9basic_iosIcSt11char_traitsIcEE5clearESt12_Ios_Iostate(ptr noundef nonnull align 8 dereferenceable(264) %5, i32 noundef %8)
  ret void
}

; Function Attrs: mustprogress nounwind uwtable
define linkonce_odr dso_local noundef i64 @_ZNKSt8ios_base5widthEv(ptr noundef nonnull align 8 dereferenceable(216) %0) #1 comdat align 2 {
  %2 = alloca ptr, align 8
  store ptr %0, ptr %2, align 8, !tbaa !157
  %3 = load ptr, ptr %2, align 8
  %4 = getelementptr inbounds nuw %"class.std::ios_base", ptr %3, i32 0, i32 2
  %5 = load i64, ptr %4, align 8, !tbaa !159
  ret i64 %5
}

; Function Attrs: inlinehint mustprogress uwtable
define available_externally noundef nonnull align 8 dereferenceable(8) ptr @_ZStlsISt11char_traitsIcEERSt13basic_ostreamIcT_ES5_PKc(ptr noundef nonnull align 8 dereferenceable(8) %0, ptr noundef %1) #7 {
  %3 = alloca ptr, align 8
  %4 = alloca ptr, align 8
  store ptr %0, ptr %3, align 8, !tbaa !151
  store ptr %1, ptr %4, align 8, !tbaa !13
  %5 = load ptr, ptr %4, align 8, !tbaa !13
  %6 = icmp ne ptr %5, null
  br i1 %6, label %13, label %7

7:                                                ; preds = %2
  %8 = load ptr, ptr %3, align 8, !tbaa !151
  %9 = load ptr, ptr %8, align 8, !tbaa !82
  %10 = getelementptr i8, ptr %9, i64 -24
  %11 = load i64, ptr %10, align 8
  %12 = getelementptr inbounds i8, ptr %8, i64 %11
  call void @_ZNSt9basic_iosIcSt11char_traitsIcEE8setstateESt12_Ios_Iostate(ptr noundef nonnull align 8 dereferenceable(264) %12, i32 noundef 1)
  br label %19

13:                                               ; preds = %2
  %14 = load ptr, ptr %3, align 8, !tbaa !151
  %15 = load ptr, ptr %4, align 8, !tbaa !13
  %16 = load ptr, ptr %4, align 8, !tbaa !13
  %17 = call noundef i64 @_ZNSt11char_traitsIcE6lengthEPKc(ptr noundef %16)
  %18 = call noundef nonnull align 8 dereferenceable(8) ptr @_ZSt16__ostream_insertIcSt11char_traitsIcEERSt13basic_ostreamIT_T0_ES6_PKS3_l(ptr noundef nonnull align 8 dereferenceable(8) %14, ptr noundef %15, i64 noundef %17)
  br label %19

19:                                               ; preds = %13, %7
  %20 = load ptr, ptr %3, align 8, !tbaa !151
  ret ptr %20
}

; Function Attrs: inlinehint mustprogress uwtable
define available_externally noundef nonnull align 8 dereferenceable(8) ptr @_ZStlsISt11char_traitsIcEERSt13basic_ostreamIcT_ES5_c(ptr noundef nonnull align 8 dereferenceable(8) %0, i8 noundef signext %1) #7 {
  %3 = alloca ptr, align 8
  %4 = alloca ptr, align 8
  %5 = alloca i8, align 1
  store ptr %0, ptr %4, align 8, !tbaa !151
  store i8 %1, ptr %5, align 1, !tbaa !33
  %6 = load ptr, ptr %4, align 8, !tbaa !151
  %7 = load ptr, ptr %6, align 8, !tbaa !82
  %8 = getelementptr i8, ptr %7, i64 -24
  %9 = load i64, ptr %8, align 8
  %10 = getelementptr inbounds i8, ptr %6, i64 %9
  %11 = call noundef i64 @_ZNKSt8ios_base5widthEv(ptr noundef nonnull align 8 dereferenceable(216) %10)
  %12 = icmp ne i64 %11, 0
  br i1 %12, label %13, label %16

13:                                               ; preds = %2
  %14 = load ptr, ptr %4, align 8, !tbaa !151
  %15 = call noundef nonnull align 8 dereferenceable(8) ptr @_ZSt16__ostream_insertIcSt11char_traitsIcEERSt13basic_ostreamIT_T0_ES6_PKS3_l(ptr noundef nonnull align 8 dereferenceable(8) %14, ptr noundef %5, i64 noundef 1)
  store ptr %15, ptr %3, align 8
  br label %21

16:                                               ; preds = %2
  %17 = load ptr, ptr %4, align 8, !tbaa !151
  %18 = load i8, ptr %5, align 1, !tbaa !33
  %19 = call noundef nonnull align 8 dereferenceable(8) ptr @_ZNSo3putEc(ptr noundef nonnull align 8 dereferenceable(8) %17, i8 noundef signext %18)
  %20 = load ptr, ptr %4, align 8, !tbaa !151
  store ptr %20, ptr %3, align 8
  br label %21

21:                                               ; preds = %16, %13
  %22 = load ptr, ptr %3, align 8
  ret ptr %22
}

; Function Attrs: inlinehint mustprogress uwtable
define internal void @"_ZZN4Luau8toStringB5cxx11ERKNS_8TypePath4PathEbENK3$_0clIRKNS0_9TypeFieldEEEDaOT_"(ptr noundef nonnull align 8 dereferenceable(24) %0, ptr noundef nonnull align 4 dereferenceable(4) %1) #7 align 2 {
  %3 = alloca ptr, align 8
  %4 = alloca ptr, align 8
  store ptr %0, ptr %3, align 8, !tbaa !65
  store ptr %1, ptr %4, align 8, !tbaa !65
  %5 = load ptr, ptr %3, align 8
  %6 = getelementptr inbounds nuw %class.anon, ptr %5, i32 0, i32 1
  %7 = load ptr, ptr %6, align 8, !tbaa !150
  %8 = load i8, ptr %7, align 1, !tbaa !15, !range !19, !noundef !20
  %9 = trunc i8 %8 to i1
  br i1 %9, label %10, label %15

10:                                               ; preds = %2
  %11 = getelementptr inbounds nuw %class.anon, ptr %5, i32 0, i32 2
  %12 = load ptr, ptr %11, align 8, !tbaa !175
  %13 = load i8, ptr %12, align 1, !tbaa !15, !range !19, !noundef !20
  %14 = trunc i8 %13 to i1
  br i1 %14, label %15, label %20

15:                                               ; preds = %10, %2
  %16 = getelementptr inbounds nuw %class.anon, ptr %5, i32 0, i32 0
  %17 = load ptr, ptr %16, align 8, !tbaa !148
  %18 = getelementptr inbounds i8, ptr %17, i64 16
  %19 = call noundef nonnull align 8 dereferenceable(8) ptr @_ZStlsISt11char_traitsIcEERSt13basic_ostreamIcT_ES5_c(ptr noundef nonnull align 8 dereferenceable(8) %18, i8 noundef signext 46)
  br label %20

20:                                               ; preds = %15, %10
  %21 = load ptr, ptr %4, align 8, !tbaa !65
  %22 = load i32, ptr %21, align 4, !tbaa !66
  switch i32 %22, label %63 [
    i32 0, label %23
    i32 1, label %28
    i32 2, label %33
    i32 3, label %38
    i32 4, label %43
    i32 5, label %48
    i32 6, label %53
    i32 7, label %58
  ]

23:                                               ; preds = %20
  %24 = getelementptr inbounds nuw %class.anon, ptr %5, i32 0, i32 0
  %25 = load ptr, ptr %24, align 8, !tbaa !148
  %26 = getelementptr inbounds i8, ptr %25, i64 16
  %27 = call noundef nonnull align 8 dereferenceable(8) ptr @_ZStlsISt11char_traitsIcEERSt13basic_ostreamIcT_ES5_PKc(ptr noundef nonnull align 8 dereferenceable(8) %26, ptr noundef @.str.60)
  br label %63

28:                                               ; preds = %20
  %29 = getelementptr inbounds nuw %class.anon, ptr %5, i32 0, i32 0
  %30 = load ptr, ptr %29, align 8, !tbaa !148
  %31 = getelementptr inbounds i8, ptr %30, i64 16
  %32 = call noundef nonnull align 8 dereferenceable(8) ptr @_ZStlsISt11char_traitsIcEERSt13basic_ostreamIcT_ES5_PKc(ptr noundef nonnull align 8 dereferenceable(8) %31, ptr noundef @.str.61)
  br label %63

33:                                               ; preds = %20
  %34 = getelementptr inbounds nuw %class.anon, ptr %5, i32 0, i32 0
  %35 = load ptr, ptr %34, align 8, !tbaa !148
  %36 = getelementptr inbounds i8, ptr %35, i64 16
  %37 = call noundef nonnull align 8 dereferenceable(8) ptr @_ZStlsISt11char_traitsIcEERSt13basic_ostreamIcT_ES5_PKc(ptr noundef nonnull align 8 dereferenceable(8) %36, ptr noundef @.str.62)
  br label %63

38:                                               ; preds = %20
  %39 = getelementptr inbounds nuw %class.anon, ptr %5, i32 0, i32 0
  %40 = load ptr, ptr %39, align 8, !tbaa !148
  %41 = getelementptr inbounds i8, ptr %40, i64 16
  %42 = call noundef nonnull align 8 dereferenceable(8) ptr @_ZStlsISt11char_traitsIcEERSt13basic_ostreamIcT_ES5_PKc(ptr noundef nonnull align 8 dereferenceable(8) %41, ptr noundef @.str.63)
  br label %63

43:                                               ; preds = %20
  %44 = getelementptr inbounds nuw %class.anon, ptr %5, i32 0, i32 0
  %45 = load ptr, ptr %44, align 8, !tbaa !148
  %46 = getelementptr inbounds i8, ptr %45, i64 16
  %47 = call noundef nonnull align 8 dereferenceable(8) ptr @_ZStlsISt11char_traitsIcEERSt13basic_ostreamIcT_ES5_PKc(ptr noundef nonnull align 8 dereferenceable(8) %46, ptr noundef @.str.64)
  br label %63

48:                                               ; preds = %20
  %49 = getelementptr inbounds nuw %class.anon, ptr %5, i32 0, i32 0
  %50 = load ptr, ptr %49, align 8, !tbaa !148
  %51 = getelementptr inbounds i8, ptr %50, i64 16
  %52 = call noundef nonnull align 8 dereferenceable(8) ptr @_ZStlsISt11char_traitsIcEERSt13basic_ostreamIcT_ES5_PKc(ptr noundef nonnull align 8 dereferenceable(8) %51, ptr noundef @.str.65)
  br label %63

53:                                               ; preds = %20
  %54 = getelementptr inbounds nuw %class.anon, ptr %5, i32 0, i32 0
  %55 = load ptr, ptr %54, align 8, !tbaa !148
  %56 = getelementptr inbounds i8, ptr %55, i64 16
  %57 = call noundef nonnull align 8 dereferenceable(8) ptr @_ZStlsISt11char_traitsIcEERSt13basic_ostreamIcT_ES5_PKc(ptr noundef nonnull align 8 dereferenceable(8) %56, ptr noundef @.str.66)
  br label %63

58:                                               ; preds = %20
  %59 = getelementptr inbounds nuw %class.anon, ptr %5, i32 0, i32 0
  %60 = load ptr, ptr %59, align 8, !tbaa !148
  %61 = getelementptr inbounds i8, ptr %60, i64 16
  %62 = call noundef nonnull align 8 dereferenceable(8) ptr @_ZStlsISt11char_traitsIcEERSt13basic_ostreamIcT_ES5_PKc(ptr noundef nonnull align 8 dereferenceable(8) %61, ptr noundef @.str.67)
  br label %63

63:                                               ; preds = %20, %58, %53, %48, %43, %38, %33, %28, %23
  %64 = getelementptr inbounds nuw %class.anon, ptr %5, i32 0, i32 0
  %65 = load ptr, ptr %64, align 8, !tbaa !148
  %66 = getelementptr inbounds i8, ptr %65, i64 16
  %67 = call noundef nonnull align 8 dereferenceable(8) ptr @_ZStlsISt11char_traitsIcEERSt13basic_ostreamIcT_ES5_PKc(ptr noundef nonnull align 8 dereferenceable(8) %66, ptr noundef @.str.68)
  %68 = getelementptr inbounds nuw %class.anon, ptr %5, i32 0, i32 1
  %69 = load ptr, ptr %68, align 8, !tbaa !150
  store i8 0, ptr %69, align 1, !tbaa !15
  ret void
}

; Function Attrs: mustprogress uwtable
define internal void @"_ZN4LuauL8fnVisitVIRZNS_8toStringB5cxx11ERKNS_8TypePath4PathEbE3$_0KNS1_9TypeFieldEEEvRT_PNSt11conditionalIXsr3stdE10is_const_vIT0_EEKvvE4typeE"(ptr noundef nonnull align 8 dereferenceable(24) %0, ptr noundef %1) #5 {
  %3 = alloca ptr, align 8
  %4 = alloca ptr, align 8
  store ptr %0, ptr %3, align 8, !tbaa !65
  store ptr %1, ptr %4, align 8, !tbaa !65
  %5 = load ptr, ptr %3, align 8, !tbaa !65
  %6 = load ptr, ptr %4, align 8, !tbaa !65
  call void @"_ZZN4Luau8toStringB5cxx11ERKNS_8TypePath4PathEbENK3$_0clIRKNS0_9TypeFieldEEEDaOT_"(ptr noundef nonnull align 8 dereferenceable(24) %5, ptr noundef nonnull align 4 dereferenceable(4) %6)
  ret void
}